target datalayout = "e-m:e-p270:32:32-p271:32:32-p272:64:64-i64:64-i128:128-f80:128-n8:16:32:64-S128"
target triple = "x86_64-pc-linux-gnu"

%"class.net::QuicTime" = type { i64 }
%"class.net::QuicFramer" = type { ptr, %"class.std::__cxx11::basic_string", ptr, ptr, i32, %"class.std::unordered_set", %"class.std::unordered_map", i64, %"class.std::unordered_map", i64, i8, i64, i32, i32, %"class.std::vector", %"class.std::unique_ptr", %"class.std::unique_ptr", i8, i8, i8, [3 x %"class.std::unique_ptr.23"], i32, i8, %"class.net::QuicTime", %"class.net::QuicTime::Delta", %"struct.std::array" }
%"class.std::__cxx11::basic_string" = type { %"struct.std::__cxx11::basic_string<char>::_Alloc_hider", i64, %union.anon }
%"struct.std::__cxx11::basic_string<char>::_Alloc_hider" = type { ptr }
%union.anon = type { i64, [8 x i8] }
%"class.std::unordered_set" = type { %"class.std::_Hashtable" }
%"class.std::_Hashtable" = type { ptr, i64, %"struct.std::__detail::_Hash_node_base", i64, %"struct.std::__detail::_Prime_rehash_policy", ptr }
%"struct.std::__detail::_Hash_node_base" = type { ptr }
%"struct.std::__detail::_Prime_rehash_policy" = type { float, i64 }
%"class.std::unordered_map" = type { %"class.std::_Hashtable.5" }
%"class.std::_Hashtable.5" = type { ptr, i64, %"struct.std::__detail::_Hash_node_base", i64, %"struct.std::__detail::_Prime_rehash_policy", ptr }
%"class.std::vector" = type { %"struct.std::_Vector_base" }
%"struct.std::_Vector_base" = type { %"struct.std::_Vector_base<net::QuicVersion, std::allocator<net::QuicVersion>>::_Vector_impl" }
%"struct.std::_Vector_base<net::QuicVersion, std::allocator<net::QuicVersion>>::_Vector_impl" = type { %"struct.std::_Vector_base<net::QuicVersion, std::allocator<net::QuicVersion>>::_Vector_impl_data" }
%"struct.std::_Vector_base<net::QuicVersion, std::allocator<net::QuicVersion>>::_Vector_impl_data" = type { ptr, ptr, ptr }
%"class.std::unique_ptr" = type { %"struct.std::__uniq_ptr_data" }
%"struct.std::__uniq_ptr_data" = type { %"class.std::__uniq_ptr_impl" }
%"class.std::__uniq_ptr_impl" = type { %"class.std::tuple" }
%"class.std::tuple" = type { %"struct.std::_Tuple_impl" }
%"struct.std::_Tuple_impl" = type { %"struct.std::_Head_base.22" }
%"struct.std::_Head_base.22" = type { ptr }
%"class.std::unique_ptr.23" = type { %"struct.std::__uniq_ptr_data.24" }
%"struct.std::__uniq_ptr_data.24" = type { %"class.std::__uniq_ptr_impl.25" }
%"class.std::__uniq_ptr_impl.25" = type { %"class.std::tuple.26" }
%"class.std::tuple.26" = type { %"struct.std::_Tuple_impl.27" }
%"struct.std::_Tuple_impl.27" = type { %"struct.std::_Head_base.30" }
%"struct.std::_Head_base.30" = type { ptr }
%"class.net::QuicTime::Delta" = type { %"class.base::TimeDelta", i64 }
%"class.base::TimeDelta" = type { i64 }
%"struct.std::array" = type { [32 x i8] }
%"struct.net::QuicPacketHeader" = type <{ %"struct.net::QuicPacketPublicHeader", i64, i8, i8, i8, i8, [4 x i8] }>
%"struct.net::QuicPacketPublicHeader" = type { i64, i32, i8, i8, i8, i8, %"class.std::vector", ptr }

@.str.42 = private unnamed_addr constant [30 x i8] c"Unable to read private flags.\00", align 1
@.str.43 = private unnamed_addr constant [29 x i8] c"Illegal private flags value.\00", align 1
@.str.44 = private unnamed_addr constant [50 x i8] c"Unable to read first fec protected packet offset.\00", align 1
@.str.45 = private unnamed_addr constant [71 x i8] c"First fec protected packet offset must be less than the packet number.\00", align 1

; Function Attrs: mustprogress nounwind uwtable
define linkonce_odr noundef i64 @_ZNSt11char_traitsIcE6lengthEPKc(ptr noundef %0) #1 comdat align 2 {
  %2 = alloca ptr, align 8
  store ptr %0, ptr %2, align 8, !tbaa !98
  %3 = load ptr, ptr %2, align 8, !tbaa !98
  %4 = call i64 @strlen(ptr noundef %3) #17
  ret i64 %4
}

; Function Attrs: mustprogress nounwind uwtable
define available_externally noundef i64 @_ZNKSt7__cxx1112basic_stringIcSt11char_traitsIcESaIcEE4sizeEv(ptr noundef nonnull align 8 dereferenceable(32) %0) #1 align 2 {
  %2 = alloca ptr, align 8
  store ptr %0, ptr %2, align 8, !tbaa !66
  %3 = load ptr, ptr %2, align 8
  %4 = getelementptr inbounds nuw %"class.std::__cxx11::basic_string", ptr %3, i32 0, i32 1
  %5 = load i64, ptr %4, align 8, !tbaa !368
  ret i64 %5
}

; Function Attrs: mustprogress uwtable
define available_externally noundef nonnull align 8 dereferenceable(32) ptr @_ZNSt7__cxx1112basic_stringIcSt11char_traitsIcESaIcEE6assignEPKc(ptr noundef nonnull align 8 dereferenceable(32) %0, ptr noundef %1) #0 align 2 {
  %3 = alloca ptr, align 8
  %4 = alloca ptr, align 8
  store ptr %0, ptr %3, align 8, !tbaa !66
  store ptr %1, ptr %4, align 8, !tbaa !98
  %5 = load ptr, ptr %3, align 8
  %6 = call noundef i64 @_ZNKSt7__cxx1112basic_stringIcSt11char_traitsIcESaIcEE4sizeEv(ptr noundef nonnull align 8 dereferenceable(32) %5) #17
  %7 = load ptr, ptr %4, align 8, !tbaa !98
  %8 = load ptr, ptr %4, align 8, !tbaa !98
  %9 = call noundef i64 @_ZNSt11char_traitsIcE6lengthEPKc(ptr noundef %8)
  %10 = call noundef nonnull align 8 dereferenceable(32) ptr @_ZNSt7__cxx1112basic_stringIcSt11char_traitsIcESaIcEE10_M_replaceEmmPKcm(ptr noundef nonnull align 8 dereferenceable(32) %5, i64 noundef 0, i64 noundef %6, ptr noundef %7, i64 noundef %9)
  ret ptr %10
}

; Function Attrs: mustprogress nounwind uwtable
define linkonce_odr void @_ZN3net10QuicFramer9set_errorENS_13QuicErrorCodeE(ptr noundef nonnull align 8 dereferenceable(408) %0, i32 noundef %1) #1 comdat align 2 {
  %3 = alloca ptr, align 8
  %4 = alloca i32, align 4
  store ptr %0, ptr %3, align 8, !tbaa !3
  store i32 %1, ptr %4, align 4, !tbaa !108
  %5 = load ptr, ptr %3, align 8
  %6 = load i32, ptr %4, align 4, !tbaa !108
  %7 = getelementptr inbounds nuw %"class.net::QuicFramer", ptr %5, i32 0, i32 4
  store i32 %6, ptr %7, align 8, !tbaa !52
  ret void
}

; Function Attrs: mustprogress uwtable
define available_externally noundef nonnull align 8 dereferenceable(32) ptr @_ZNSt7__cxx1112basic_stringIcSt11char_traitsIcESaIcEEaSEPKc(ptr noundef nonnull align 8 dereferenceable(32) %0, ptr noundef %1) #0 align 2 {
  %3 = alloca ptr, align 8
  %4 = alloca ptr, align 8
  store ptr %0, ptr %3, align 8, !tbaa !66
  store ptr %1, ptr %4, align 8, !tbaa !98
  %5 = load ptr, ptr %3, align 8
  %6 = load ptr, ptr %4, align 8, !tbaa !98
  %7 = call noundef nonnull align 8 dereferenceable(32) ptr @_ZNSt7__cxx1112basic_stringIcSt11char_traitsIcESaIcEE6assignEPKc(ptr noundef nonnull align 8 dereferenceable(32) %5, ptr noundef %6)
  ret ptr %7
}

; Function Attrs: mustprogress nounwind uwtable
define noundef zeroext i8 @_ZN3net10QuicFramer20GetPacketEntropyHashERKNS_16QuicPacketHeaderE(ptr noundef nonnull align 8 dereferenceable(60) %0) #1 align 2 {
  %2 = alloca ptr, align 8
  store ptr %0, ptr %2, align 8, !tbaa !150
  %3 = load ptr, ptr %2, align 8, !tbaa !150
  %4 = getelementptr inbounds nuw %"struct.net::QuicPacketHeader", ptr %3, i32 0, i32 3
  %5 = load i8, ptr %4, align 1, !tbaa !152, !range !87, !noundef !88
  %6 = trunc i8 %5 to i1
  %7 = zext i1 %6 to i32
  %8 = load ptr, ptr %2, align 8, !tbaa !150
  %9 = getelementptr inbounds nuw %"struct.net::QuicPacketHeader", ptr %8, i32 0, i32 1
  %10 = load i64, ptr %9, align 8, !tbaa !157
  %11 = urem i64 %10, 8
  %12 = trunc i64 %11 to i32
  %13 = shl i32 %7, %12
  %14 = trunc i32 %13 to i8
  ret i8 %14
}

; Function Attrs: mustprogress uwtable
define noundef zeroext i1 @_ZN3net10QuicFramer10RaiseErrorENS_13QuicErrorCodeE(ptr noundef nonnull align 8 dereferenceable(408) %0, i32 noundef %1) #0 align 2 {
  %3 = alloca ptr, align 8
  %4 = alloca i32, align 4
  store ptr %0, ptr %3, align 8, !tbaa !3
  store i32 %1, ptr %4, align 4, !tbaa !108
  %5 = load ptr, ptr %3, align 8
  %6 = load i32, ptr %4, align 4, !tbaa !108
  call void @_ZN3net10QuicFramer9set_errorENS_13QuicErrorCodeE(ptr noundef nonnull align 8 dereferenceable(408) %5, i32 noundef %6)
  %7 = getelementptr inbounds nuw %"class.net::QuicFramer", ptr %5, i32 0, i32 2
  %8 = load ptr, ptr %7, align 8, !tbaa !14
  %9 = load ptr, ptr %8, align 8, !tbaa !12
  %10 = getelementptr inbounds ptr, ptr %9, i64 2
  %11 = load ptr, ptr %10, align 8
  call void %11(ptr noundef nonnull align 8 dereferenceable(8) %8, ptr noundef %5)
  ret i1 false
}

; Function Attrs: mustprogress uwtable
define linkonce_odr void @_ZN3net10QuicFramer18set_detailed_errorEPKc(ptr noundef nonnull align 8 dereferenceable(408) %0, ptr noundef %1) #0 comdat align 2 {
  %3 = alloca ptr, align 8
  %4 = alloca ptr, align 8
  store ptr %0, ptr %3, align 8, !tbaa !3
  store ptr %1, ptr %4, align 8, !tbaa !98
  %5 = load ptr, ptr %3, align 8
  %6 = load ptr, ptr %4, align 8, !tbaa !98
  %7 = getelementptr inbounds nuw %"class.net::QuicFramer", ptr %5, i32 0, i32 1
  %8 = call noundef nonnull align 8 dereferenceable(32) ptr @_ZNSt7__cxx1112basic_stringIcSt11char_traitsIcESaIcEEaSEPKc(ptr noundef nonnull align 8 dereferenceable(32) %7, ptr noundef %6)
  ret void
}

; Function Attrs: mustprogress uwtable
define noundef zeroext i1 @_ZN3net10QuicFramer26ProcessAuthenticatedHeaderEPNS_14QuicDataReaderEPNS_16QuicPacketHeaderE(ptr noundef nonnull align 8 dereferenceable(408) %0, ptr noundef %1, ptr noundef %2) #0 align 2 {
  %4 = alloca i1, align 1
  %5 = alloca ptr, align 8
  %6 = alloca ptr, align 8
  %7 = alloca ptr, align 8
  %8 = alloca i8, align 1
  %9 = alloca i32, align 4
  %10 = alloca i8, align 1
  store ptr %0, ptr %5, align 8, !tbaa !3
  store ptr %1, ptr %6, align 8, !tbaa !297
  store ptr %2, ptr %7, align 8, !tbaa !150
  %11 = load ptr, ptr %5, align 8
  call void @llvm.lifetime.start.p0(i64 1, ptr %8) #17
  %12 = load ptr, ptr %6, align 8, !tbaa !297
  %13 = call noundef zeroext i1 @_ZN3net14QuicDataReader9ReadBytesEPvm(ptr noundef nonnull align 8 dereferenceable(24) %12, ptr noundef %8, i64 noundef 1)
  br i1 %13, label %16, label %14

14:                                               ; preds = %3
  call void @_ZN3net10QuicFramer18set_detailed_errorEPKc(ptr noundef nonnull align 8 dereferenceable(408) %11, ptr noundef @.str.42)
  %15 = call noundef zeroext i1 @_ZN3net10QuicFramer10RaiseErrorENS_13QuicErrorCodeE(ptr noundef nonnull align 8 dereferenceable(408) %11, i32 noundef 3)
  store i1 %15, ptr %4, align 1
  store i32 1, ptr %9, align 4
  br label %76

16:                                               ; preds = %3
  %17 = getelementptr inbounds nuw %"class.net::QuicFramer", ptr %11, i32 0, i32 13
  %18 = load i32, ptr %17, align 4, !tbaa !65
  %19 = icmp sgt i32 %18, 31
  br i1 %19, label %20, label %27

20:                                               ; preds = %16
  %21 = load i8, ptr %8, align 1, !tbaa !107
  %22 = zext i8 %21 to i32
  %23 = icmp sgt i32 %22, 1
  br i1 %23, label %24, label %26

24:                                               ; preds = %20
  call void @_ZN3net10QuicFramer18set_detailed_errorEPKc(ptr noundef nonnull align 8 dereferenceable(408) %11, ptr noundef @.str.43)
  %25 = call noundef zeroext i1 @_ZN3net10QuicFramer10RaiseErrorENS_13QuicErrorCodeE(ptr noundef nonnull align 8 dereferenceable(408) %11, i32 noundef 3)
  store i1 %25, ptr %4, align 1
  store i32 1, ptr %9, align 4
  br label %76

26:                                               ; preds = %20
  br label %34

27:                                               ; preds = %16
  %28 = load i8, ptr %8, align 1, !tbaa !107
  %29 = zext i8 %28 to i32
  %30 = icmp sgt i32 %29, 7
  br i1 %30, label %31, label %33

31:                                               ; preds = %27
  call void @_ZN3net10QuicFramer18set_detailed_errorEPKc(ptr noundef nonnull align 8 dereferenceable(408) %11, ptr noundef @.str.43)
  %32 = call noundef zeroext i1 @_ZN3net10QuicFramer10RaiseErrorENS_13QuicErrorCodeE(ptr noundef nonnull align 8 dereferenceable(408) %11, i32 noundef 3)
  store i1 %32, ptr %4, align 1
  store i32 1, ptr %9, align 4
  br label %76

33:                                               ; preds = %27
  br label %34

34:                                               ; preds = %33, %26
  %35 = load i8, ptr %8, align 1, !tbaa !107
  %36 = zext i8 %35 to i32
  %37 = and i32 %36, 1
  %38 = icmp ne i32 %37, 0
  %39 = load ptr, ptr %7, align 8, !tbaa !150
  %40 = getelementptr inbounds nuw %"struct.net::QuicPacketHeader", ptr %39, i32 0, i32 3
  %41 = zext i1 %38 to i8
  store i8 %41, ptr %40, align 1, !tbaa !152
  %42 = load i8, ptr %8, align 1, !tbaa !107
  %43 = zext i8 %42 to i32
  %44 = and i32 %43, 4
  %45 = icmp ne i32 %44, 0
  %46 = load ptr, ptr %7, align 8, !tbaa !150
  %47 = getelementptr inbounds nuw %"struct.net::QuicPacketHeader", ptr %46, i32 0, i32 5
  %48 = zext i1 %45 to i8
  store i8 %48, ptr %47, align 1, !tbaa !314
  %49 = load i8, ptr %8, align 1, !tbaa !107
  %50 = zext i8 %49 to i32
  %51 = and i32 %50, 2
  %52 = icmp ne i32 %51, 0
  br i1 %52, label %53, label %71

53:                                               ; preds = %34
  call void @llvm.lifetime.start.p0(i64 1, ptr %10) #17
  %54 = load ptr, ptr %6, align 8, !tbaa !297
  %55 = call noundef zeroext i1 @_ZN3net14QuicDataReader9ReadBytesEPvm(ptr noundef nonnull align 8 dereferenceable(24) %54, ptr noundef %10, i64 noundef 1)
  br i1 %55, label %58, label %56

56:                                               ; preds = %53
  call void @_ZN3net10QuicFramer18set_detailed_errorEPKc(ptr noundef nonnull align 8 dereferenceable(408) %11, ptr noundef @.str.44)
  %57 = call noundef zeroext i1 @_ZN3net10QuicFramer10RaiseErrorENS_13QuicErrorCodeE(ptr noundef nonnull align 8 dereferenceable(408) %11, i32 noundef 3)
  store i1 %57, ptr %4, align 1
  store i32 1, ptr %9, align 4
  br label %68

58:                                               ; preds = %53
  %59 = load i8, ptr %10, align 1, !tbaa !107
  %60 = zext i8 %59 to i64
  %61 = load ptr, ptr %7, align 8, !tbaa !150
  %62 = getelementptr inbounds nuw %"struct.net::QuicPacketHeader", ptr %61, i32 0, i32 1
  %63 = load i64, ptr %62, align 8, !tbaa !157
  %64 = icmp uge i64 %60, %63
  br i1 %64, label %65, label %67

65:                                               ; preds = %58
  call void @_ZN3net10QuicFramer18set_detailed_errorEPKc(ptr noundef nonnull align 8 dereferenceable(408) %11, ptr noundef @.str.45)
  %66 = call noundef zeroext i1 @_ZN3net10QuicFramer10RaiseErrorENS_13QuicErrorCodeE(ptr noundef nonnull align 8 dereferenceable(408) %11, i32 noundef 3)
  store i1 %66, ptr %4, align 1
  store i32 1, ptr %9, align 4
  br label %68

67:                                               ; preds = %58
  store i32 0, ptr %9, align 4
  br label %68

68:                                               ; preds = %67, %65, %56
  call void @llvm.lifetime.end.p0(i64 1, ptr %10) #17
  %69 = load i32, ptr %9, align 4
  switch i32 %69, label %76 [
    i32 0, label %70
  ]

70:                                               ; preds = %68
  br label %71

71:                                               ; preds = %70, %34
  %72 = load ptr, ptr %7, align 8, !tbaa !150
  %73 = call noundef zeroext i8 @_ZN3net10QuicFramer20GetPacketEntropyHashERKNS_16QuicPacketHeaderE(ptr noundef nonnull align 8 dereferenceable(60) %72)
  %74 = load ptr, ptr %7, align 8, !tbaa !150
  %75 = getelementptr inbounds nuw %"struct.net::QuicPacketHeader", ptr %74, i32 0, i32 4
  store i8 %73, ptr %75, align 2, !tbaa !315
  store i1 true, ptr %4, align 1
  store i32 1, ptr %9, align 4
  br label %76

76:                                               ; preds = %71, %68, %31, %24, %14
  call void @llvm.lifetime.end.p0(i64 1, ptr %8) #17
  %77 = load i1, ptr %4, align 1
  ret i1 %77
}