; Function Attrs: mustprogress uwtable
define noundef zeroext i1 @_ZN3net10QuicFramer26ProcessAuthenticatedHeaderEPNS_14QuicDataReaderEPNS_16QuicPacketHeaderE(ptr noundef nonnull align 8 dereferenceable(408) %0, ptr noundef nonnull %1, ptr noundef captures(none) %2) local_unnamed_addr #0 align 2 {
  %4 = alloca i8, align 1
  %5 = alloca i8, align 1
  call void @llvm.lifetime.start.p0(i64 1, ptr nonnull %4) #26
  %6 = call noundef zeroext i1 @_ZN3net14QuicDataReader9ReadBytesEPvm(ptr noundef nonnull align 8 dereferenceable(24) %1, ptr noundef nonnull %4, i64 noundef 1)
  br i1 %6, label %18, label %7

7:                                                ; preds = %3
  %8 = getelementptr inbounds nuw i8, ptr %0, i64 8
  %9 = getelementptr inbounds nuw i8, ptr %0, i64 16
  %10 = load i64, ptr %9, align 8, !tbaa !11
  %11 = call noundef nonnull align 8 dereferenceable(32) ptr @_ZNSt7__cxx1112basic_stringIcSt11char_traitsIcESaIcEE10_M_replaceEmmPKcm(ptr noundef nonnull align 8 dereferenceable(32) %8, i64 noundef 0, i64 noundef %10, ptr noundef nonnull @.str.42, i64 noundef 29)
  %12 = getelementptr inbounds nuw i8, ptr %0, i64 56
  store i32 3, ptr %12, align 8, !tbaa !92
  %13 = getelementptr inbounds nuw i8, ptr %0, i64 40
  %14 = load ptr, ptr %13, align 8, !tbaa !93
  %15 = load ptr, ptr %14, align 8, !tbaa !3
  %16 = getelementptr inbounds nuw i8, ptr %15, i64 16
  %17 = load ptr, ptr %16, align 8
  call void %17(ptr noundef nonnull align 8 dereferenceable(8) %14, ptr noundef nonnull align 8 dereferenceable(408) %0)
  br label %86

18:                                               ; preds = %3
  %19 = getelementptr inbounds nuw i8, ptr %0, i64 268
  %20 = load i32, ptr %19, align 4, !tbaa !67
  %21 = icmp sgt i32 %20, 31
  %22 = load i8, ptr %4, align 1, !tbaa !14
  br i1 %21, label %23, label %36

23:                                               ; preds = %18
  %24 = icmp ugt i8 %22, 1
  br i1 %24, label %25, label %49

25:                                               ; preds = %23
  %26 = getelementptr inbounds nuw i8, ptr %0, i64 8
  %27 = getelementptr inbounds nuw i8, ptr %0, i64 16
  %28 = load i64, ptr %27, align 8, !tbaa !11
  %29 = call noundef nonnull align 8 dereferenceable(32) ptr @_ZNSt7__cxx1112basic_stringIcSt11char_traitsIcESaIcEE10_M_replaceEmmPKcm(ptr noundef nonnull align 8 dereferenceable(32) %26, i64 noundef 0, i64 noundef %28, ptr noundef nonnull @.str.43, i64 noundef 28)
  %30 = getelementptr inbounds nuw i8, ptr %0, i64 56
  store i32 3, ptr %30, align 8, !tbaa !92
  %31 = getelementptr inbounds nuw i8, ptr %0, i64 40
  %32 = load ptr, ptr %31, align 8, !tbaa !93
  %33 = load ptr, ptr %32, align 8, !tbaa !3
  %34 = getelementptr inbounds nuw i8, ptr %33, i64 16
  %35 = load ptr, ptr %34, align 8
  call void %35(ptr noundef nonnull align 8 dereferenceable(8) %32, ptr noundef nonnull align 8 dereferenceable(408) %0)
  br label %86

36:                                               ; preds = %18
  %37 = icmp ugt i8 %22, 7
  br i1 %37, label %38, label %49

38:                                               ; preds = %36
  %39 = getelementptr inbounds nuw i8, ptr %0, i64 8
  %40 = getelementptr inbounds nuw i8, ptr %0, i64 16
  %41 = load i64, ptr %40, align 8, !tbaa !11
  %42 = call noundef nonnull align 8 dereferenceable(32) ptr @_ZNSt7__cxx1112basic_stringIcSt11char_traitsIcESaIcEE10_M_replaceEmmPKcm(ptr noundef nonnull align 8 dereferenceable(32) %39, i64 noundef 0, i64 noundef %41, ptr noundef nonnull @.str.43, i64 noundef 28)
  %43 = getelementptr inbounds nuw i8, ptr %0, i64 56
  store i32 3, ptr %43, align 8, !tbaa !92
  %44 = getelementptr inbounds nuw i8, ptr %0, i64 40
  %45 = load ptr, ptr %44, align 8, !tbaa !93
  %46 = load ptr, ptr %45, align 8, !tbaa !3
  %47 = getelementptr inbounds nuw i8, ptr %46, i64 16
  %48 = load ptr, ptr %47, align 8
  call void %48(ptr noundef nonnull align 8 dereferenceable(8) %45, ptr noundef nonnull align 8 dereferenceable(408) %0)
  br label %86

49:                                               ; preds = %36, %23
  %50 = and i8 %22, 1
  %51 = getelementptr inbounds nuw i8, ptr %2, i64 57
  store i8 %50, ptr %51, align 1, !tbaa !135
  %52 = getelementptr inbounds nuw i8, ptr %2, i64 59
  %53 = lshr i8 %22, 2
  store i8 %53, ptr %52, align 1, !tbaa !273
  %54 = and i8 %22, 2
  %.not = icmp eq i8 %54, 0
  br i1 %.not, label %._crit_edge, label %55

._crit_edge:                                      ; preds = %49
  %.phi.trans.insert = getelementptr inbounds nuw i8, ptr %2, i64 48
  %.pre11 = load i64, ptr %.phi.trans.insert, align 8, !tbaa !143
  br label %73

55:                                               ; preds = %49
  call void @llvm.lifetime.start.p0(i64 1, ptr nonnull %5) #26
  %56 = call noundef zeroext i1 @_ZN3net14QuicDataReader9ReadBytesEPvm(ptr noundef nonnull align 8 dereferenceable(24) %1, ptr noundef nonnull %5, i64 noundef 1)
  br i1 %56, label %62, label %57

57:                                               ; preds = %55
  %58 = getelementptr inbounds nuw i8, ptr %0, i64 8
  %59 = getelementptr inbounds nuw i8, ptr %0, i64 16
  %60 = load i64, ptr %59, align 8, !tbaa !11
  %61 = call noundef nonnull align 8 dereferenceable(32) ptr @_ZNSt7__cxx1112basic_stringIcSt11char_traitsIcESaIcEE10_M_replaceEmmPKcm(ptr noundef nonnull align 8 dereferenceable(32) %58, i64 noundef 0, i64 noundef %60, ptr noundef nonnull @.str.44, i64 noundef 49)
  br label %.critedge

62:                                               ; preds = %55
  %63 = load i8, ptr %5, align 1, !tbaa !14
  %64 = zext i8 %63 to i64
  %65 = getelementptr inbounds nuw i8, ptr %2, i64 48
  %66 = load i64, ptr %65, align 8, !tbaa !143
  %.not10 = icmp ugt i64 %66, %64
  br i1 %.not10, label %72, label %67

67:                                               ; preds = %62
  %68 = getelementptr inbounds nuw i8, ptr %0, i64 8
  %69 = getelementptr inbounds nuw i8, ptr %0, i64 16
  %70 = load i64, ptr %69, align 8, !tbaa !11
  %71 = call noundef nonnull align 8 dereferenceable(32) ptr @_ZNSt7__cxx1112basic_stringIcSt11char_traitsIcESaIcEE10_M_replaceEmmPKcm(ptr noundef nonnull align 8 dereferenceable(32) %68, i64 noundef 0, i64 noundef %70, ptr noundef nonnull @.str.45, i64 noundef 70)
  br label %.critedge

72:                                               ; preds = %62
  call void @llvm.lifetime.end.p0(i64 1, ptr nonnull %5) #26
  %.pre = load i8, ptr %51, align 1, !tbaa !135, !range !141
  br label %73

73:                                               ; preds = %._crit_edge, %72
  %74 = phi i64 [ %66, %72 ], [ %.pre11, %._crit_edge ]
  %75 = phi i8 [ %.pre, %72 ], [ %50, %._crit_edge ]
  %76 = trunc i64 %74 to i8
  %77 = and i8 %76, 7
  %78 = shl nuw i8 %75, %77
  %79 = getelementptr inbounds nuw i8, ptr %2, i64 58
  store i8 %78, ptr %79, align 2, !tbaa !274
  br label %86

.critedge:                                        ; preds = %57, %67
  %80 = getelementptr inbounds nuw i8, ptr %0, i64 56
  store i32 3, ptr %80, align 8, !tbaa !92
  %81 = getelementptr inbounds nuw i8, ptr %0, i64 40
  %82 = load ptr, ptr %81, align 8, !tbaa !93
  %83 = load ptr, ptr %82, align 8, !tbaa !3
  %84 = getelementptr inbounds nuw i8, ptr %83, i64 16
  %85 = load ptr, ptr %84, align 8
  call void %85(ptr noundef nonnull align 8 dereferenceable(8) %82, ptr noundef nonnull align 8 dereferenceable(408) %0)
  call void @llvm.lifetime.end.p0(i64 1, ptr nonnull %5) #26
  br label %86

86:                                               ; preds = %.critedge, %73, %38, %25, %7
  %.09 = phi i1 [ false, %25 ], [ true, %73 ], [ false, %38 ], [ false, %7 ], [ false, %.critedge ]
  call void @llvm.lifetime.end.p0(i64 1, ptr nonnull %4) #26
  ret i1 %.09
}